; Function Attrs: mustprogress uwtable
define dso_local void @_ZN21cmExportFileGenerator25PopulateInterfacePropertyERKNSt7__cxx1112basic_stringIcSt11char_traitsIcESaIcEEEPK17cmGeneratorTargetRSt3mapIS5_S5_St4lessIS5_ESaISt4pairIS6_S5_EEE(ptr nocapture noundef nonnull readnone align 8 dereferenceable(341) %0, ptr noundef nonnull align 8 dereferenceable(32) %1, ptr noundef nonnull %2, ptr noundef nonnull align 8 dereferenceable(48) %3) local_unnamed_addr #4 align 2 {
  %5 = tail call ptr @_ZNK17cmGeneratorTarget11GetPropertyERKNSt7__cxx1112basic_stringIcSt11char_traitsIcESaIcEEE(ptr noundef nonnull align 8 dereferenceable(2728) %2, ptr noundef nonnull align 8 dereferenceable(32) %1)
  %.not = icmp eq ptr %5, null
  br i1 %.not, label %9, label %6

6:                                                ; preds = %4
  %7 = tail call noundef nonnull align 8 dereferenceable(32) ptr @_ZNSt3mapINSt7__cxx1112basic_stringIcSt11char_traitsIcESaIcEEES5_St4lessIS5_ESaISt4pairIKS5_S5_EEEixERS9_(ptr noundef nonnull align 8 dereferenceable(48) %3, ptr noundef nonnull align 8 dereferenceable(32) %1)
  %8 = tail call noundef nonnull align 8 dereferenceable(32) ptr @_ZNSt7__cxx1112basic_stringIcSt11char_traitsIcESaIcEEaSERKS4_(ptr noundef nonnull align 8 dereferenceable(32) %7, ptr noundef nonnull align 8 dereferenceable(32) %5)
  br label %9

9:                                                ; preds = %6, %4
  ret void
}